; Function Attrs: nounwind uwtable
define ptr @l_Lean_Compiler_LCNF_ScopeM_withBackTrackingScope___rarg___lambda__3(ptr noundef %0, ptr noundef %1, ptr noundef %2, ptr noundef %3, ptr noundef %4) #0 {
  %6 = getelementptr inbounds nuw i8, ptr %0, i64 8
  %7 = load ptr, ptr %6, align 8, !tbaa !9
  %8 = ptrtoint ptr %7 to i64
  %9 = and i64 %8, 1
  %.not = icmp eq i64 %9, 0
  br i1 %.not, label %10, label %lean_inc.exit23

10:                                               ; preds = %5
  %.val.i = load i32, ptr %7, align 4, !tbaa !4
  %11 = icmp sgt i32 %.val.i, 0
  br i1 %11, label %12, label %14, !prof !11

12:                                               ; preds = %10
  %13 = add nuw i32 %.val.i, 1
  store i32 %13, ptr %7, align 4, !tbaa !4
  br label %lean_inc.exit23

14:                                               ; preds = %10
  %.not.i30 = icmp eq i32 %.val.i, 0
  br i1 %.not.i30, label %lean_inc.exit23, label %15

15:                                               ; preds = %14
  tail call void @lean_inc_ref_cold(ptr noundef nonnull %7) #3
  br label %lean_inc.exit23

lean_inc.exit23:                                  ; preds = %15, %14, %12, %5
  %16 = ptrtoint ptr %0 to i64
  %17 = and i64 %16, 1
  %.not38 = icmp eq i64 %17, 0
  br i1 %.not38, label %18, label %lean_dec.exit25

18:                                               ; preds = %lean_inc.exit23
  %19 = load i32, ptr %0, align 4, !tbaa !4
  %20 = icmp sgt i32 %19, 1
  br i1 %20, label %21, label %23, !prof !11

21:                                               ; preds = %18
  %22 = add nsw i32 %19, -1
  store i32 %22, ptr %0, align 4, !tbaa !4
  br label %lean_dec.exit25

23:                                               ; preds = %18
  %.not.i = icmp eq i32 %19, 0
  br i1 %.not.i, label %lean_dec.exit25, label %24

24:                                               ; preds = %23
  tail call void @lean_dec_ref_cold(ptr noundef nonnull %0) #3
  br label %lean_dec.exit25

lean_dec.exit25:                                  ; preds = %24, %23, %21, %lean_inc.exit23
  %25 = getelementptr inbounds nuw i8, ptr %7, i64 8
  %26 = load ptr, ptr %25, align 8, !tbaa !9
  %27 = ptrtoint ptr %26 to i64
  %28 = and i64 %27, 1
  %.not39 = icmp eq i64 %28, 0
  br i1 %.not39, label %29, label %lean_inc.exit22

29:                                               ; preds = %lean_dec.exit25
  %.val.i31 = load i32, ptr %26, align 4, !tbaa !4
  %30 = icmp sgt i32 %.val.i31, 0
  br i1 %30, label %31, label %33, !prof !11

31:                                               ; preds = %29
  %32 = add nuw i32 %.val.i31, 1
  store i32 %32, ptr %26, align 4, !tbaa !4
  br label %lean_inc.exit22

33:                                               ; preds = %29
  %.not.i32 = icmp eq i32 %.val.i31, 0
  br i1 %.not.i32, label %lean_inc.exit22, label %34

34:                                               ; preds = %33
  tail call void @lean_inc_ref_cold(ptr noundef nonnull %26) #3
  br label %lean_inc.exit22

lean_inc.exit22:                                  ; preds = %34, %33, %31, %lean_dec.exit25
  br i1 %.not, label %35, label %lean_dec.exit24

35:                                               ; preds = %lean_inc.exit22
  %36 = load i32, ptr %7, align 4, !tbaa !4
  %37 = icmp sgt i32 %36, 1
  br i1 %37, label %38, label %40, !prof !11

38:                                               ; preds = %35
  %39 = add nsw i32 %36, -1
  store i32 %39, ptr %7, align 4, !tbaa !4
  br label %lean_dec.exit24

40:                                               ; preds = %35
  %.not.i26 = icmp eq i32 %36, 0
  br i1 %.not.i26, label %lean_dec.exit24, label %41

41:                                               ; preds = %40
  tail call void @lean_dec_ref_cold(ptr noundef nonnull %7) #3
  br label %lean_dec.exit24

lean_dec.exit24:                                  ; preds = %41, %40, %38, %lean_inc.exit22
  tail call void @lean_inc_heartbeat() #3
  %42 = tail call noalias ptr @mi_malloc_small(i64 noundef 32) #3
  %43 = icmp eq ptr %42, null
  br i1 %43, label %44, label %lean_alloc_closure.exit

44:                                               ; preds = %lean_dec.exit24
  tail call void @lean_internal_panic_out_of_memory() #4
  unreachable

lean_alloc_closure.exit:                          ; preds = %lean_dec.exit24
  %45 = getelementptr inbounds nuw i8, ptr %42, i64 4
  store i32 1, ptr %42, align 4, !tbaa !4
  store i32 -184549344, ptr %45, align 4
  %46 = getelementptr inbounds nuw i8, ptr %42, i64 8
  store ptr @l_Lean_Compiler_LCNF_ScopeM_setScope___boxed, ptr %46, align 8, !tbaa !9
  %47 = getelementptr inbounds nuw i8, ptr %42, i64 16
  store i16 7, ptr %47, align 8, !tbaa !12
  %48 = getelementptr inbounds nuw i8, ptr %42, i64 18
  store i16 1, ptr %48, align 2, !tbaa !12
  %49 = getelementptr inbounds nuw i8, ptr %42, i64 24
  store ptr %4, ptr %49, align 8, !tbaa !9
  %50 = tail call ptr @lean_apply_2(ptr noundef %1, ptr noundef nonnull inttoptr (i64 1 to ptr), ptr noundef nonnull %42) #3
  tail call void @lean_inc_heartbeat() #3
  %51 = tail call noalias ptr @mi_malloc_small(i64 noundef 32) #3
  %52 = icmp eq ptr %51, null
  br i1 %52, label %53, label %lean_alloc_closure.exit34

53:                                               ; preds = %lean_alloc_closure.exit
  tail call void @lean_internal_panic_out_of_memory() #4
  unreachable

lean_alloc_closure.exit34:                        ; preds = %lean_alloc_closure.exit
  %54 = getelementptr inbounds nuw i8, ptr %51, i64 4
  store i32 1, ptr %51, align 4, !tbaa !4
  store i32 -184549344, ptr %54, align 4
  %55 = getelementptr inbounds nuw i8, ptr %51, i64 8
  store ptr @l_Lean_Compiler_LCNF_ScopeM_withBackTrackingScope___rarg___lambda__1___boxed, ptr %55, align 8, !tbaa !9
  %56 = getelementptr inbounds nuw i8, ptr %51, i64 16
  store i16 2, ptr %56, align 8, !tbaa !12
  %57 = getelementptr inbounds nuw i8, ptr %51, i64 18
  store i16 1, ptr %57, align 2, !tbaa !12
  %58 = getelementptr inbounds nuw i8, ptr %51, i64 24
  store ptr %50, ptr %58, align 8, !tbaa !9
  %59 = tail call ptr @lean_apply_4(ptr noundef %2, ptr noundef nonnull inttoptr (i64 1 to ptr), ptr noundef nonnull inttoptr (i64 1 to ptr), ptr noundef %3, ptr noundef nonnull %51) #3
  %60 = getelementptr inbounds nuw i8, ptr %26, i64 8
  %61 = load ptr, ptr %60, align 8, !tbaa !9
  %62 = ptrtoint ptr %61 to i64
  %63 = and i64 %62, 1
  %.not40 = icmp eq i64 %63, 0
  br i1 %.not40, label %64, label %lean_inc.exit

64:                                               ; preds = %lean_alloc_closure.exit34
  %.val.i35 = load i32, ptr %61, align 4, !tbaa !4
  %65 = icmp sgt i32 %.val.i35, 0
  br i1 %65, label %66, label %68, !prof !11

66:                                               ; preds = %64
  %67 = add nuw i32 %.val.i35, 1
  store i32 %67, ptr %61, align 4, !tbaa !4
  br label %lean_inc.exit

68:                                               ; preds = %64
  %.not.i36 = icmp eq i32 %.val.i35, 0
  br i1 %.not.i36, label %lean_inc.exit, label %69

69:                                               ; preds = %68
  tail call void @lean_inc_ref_cold(ptr noundef nonnull %61) #3
  br label %lean_inc.exit

lean_inc.exit:                                    ; preds = %69, %68, %66, %lean_alloc_closure.exit34
  br i1 %.not39, label %70, label %lean_dec.exit

70:                                               ; preds = %lean_inc.exit
  %71 = load i32, ptr %26, align 4, !tbaa !4
  %72 = icmp sgt i32 %71, 1
  br i1 %72, label %73, label %75, !prof !11

73:                                               ; preds = %70
  %74 = add nsw i32 %71, -1
  store i32 %74, ptr %26, align 4, !tbaa !4
  br label %lean_dec.exit

75:                                               ; preds = %70
  %.not.i28 = icmp eq i32 %71, 0
  br i1 %.not.i28, label %lean_dec.exit, label %76

76:                                               ; preds = %75
  tail call void @lean_dec_ref_cold(ptr noundef nonnull %26) #3
  br label %lean_dec.exit

lean_dec.exit:                                    ; preds = %76, %75, %73, %lean_inc.exit
  %77 = load ptr, ptr @l_Lean_Compiler_LCNF_ScopeM_withBackTrackingScope___rarg___lambda__3___closed__1, align 8, !tbaa !9
  %78 = tail call ptr @lean_apply_4(ptr noundef %61, ptr noundef nonnull inttoptr (i64 1 to ptr), ptr noundef nonnull inttoptr (i64 1 to ptr), ptr noundef %77, ptr noundef %59) #3
  ret ptr %78
}